target datalayout = "e-m:e-p270:32:32-p271:32:32-p272:64:64-i64:64-i128:128-f80:128-n8:16:32:64-S128"
target triple = "x86_64-pc-linux-gnu"

%"struct.metaspace::InUseChunkStats" = type { i32, i64, i64, i64, i64, i64 }
%"struct.metaspace::ArenaStats" = type { [15 x %"struct.metaspace::InUseChunkStats"], i64, i64 }

; Function Attrs: mustprogress nounwind uwtable
define linkonce_odr hidden void @_ZN9metaspace15InUseChunkStats3addERKS0_(ptr noundef nonnull align 8 dereferenceable(48) %0, ptr noundef nonnull align 8 dereferenceable(48) %1) #1 comdat align 2 {
  %3 = alloca ptr, align 8
  %4 = alloca ptr, align 8
  store ptr %0, ptr %3, align 8
  store ptr %1, ptr %4, align 8
  %5 = load ptr, ptr %3, align 8
  %6 = load ptr, ptr %4, align 8
  %7 = getelementptr inbounds %"struct.metaspace::InUseChunkStats", ptr %6, i32 0, i32 0
  %8 = load i32, ptr %7, align 8
  %9 = getelementptr inbounds %"struct.metaspace::InUseChunkStats", ptr %5, i32 0, i32 0
  %10 = load i32, ptr %9, align 8
  %11 = add nsw i32 %10, %8
  store i32 %11, ptr %9, align 8
  %12 = load ptr, ptr %4, align 8
  %13 = getelementptr inbounds %"struct.metaspace::InUseChunkStats", ptr %12, i32 0, i32 1
  %14 = load i64, ptr %13, align 8
  %15 = getelementptr inbounds %"struct.metaspace::InUseChunkStats", ptr %5, i32 0, i32 1
  %16 = load i64, ptr %15, align 8
  %17 = add i64 %16, %14
  store i64 %17, ptr %15, align 8
  %18 = load ptr, ptr %4, align 8
  %19 = getelementptr inbounds %"struct.metaspace::InUseChunkStats", ptr %18, i32 0, i32 2
  %20 = load i64, ptr %19, align 8
  %21 = getelementptr inbounds %"struct.metaspace::InUseChunkStats", ptr %5, i32 0, i32 2
  %22 = load i64, ptr %21, align 8
  %23 = add i64 %22, %20
  store i64 %23, ptr %21, align 8
  %24 = load ptr, ptr %4, align 8
  %25 = getelementptr inbounds %"struct.metaspace::InUseChunkStats", ptr %24, i32 0, i32 3
  %26 = load i64, ptr %25, align 8
  %27 = getelementptr inbounds %"struct.metaspace::InUseChunkStats", ptr %5, i32 0, i32 3
  %28 = load i64, ptr %27, align 8
  %29 = add i64 %28, %26
  store i64 %29, ptr %27, align 8
  %30 = load ptr, ptr %4, align 8
  %31 = getelementptr inbounds %"struct.metaspace::InUseChunkStats", ptr %30, i32 0, i32 4
  %32 = load i64, ptr %31, align 8
  %33 = getelementptr inbounds %"struct.metaspace::InUseChunkStats", ptr %5, i32 0, i32 4
  %34 = load i64, ptr %33, align 8
  %35 = add i64 %34, %32
  store i64 %35, ptr %33, align 8
  %36 = load ptr, ptr %4, align 8
  %37 = getelementptr inbounds %"struct.metaspace::InUseChunkStats", ptr %36, i32 0, i32 5
  %38 = load i64, ptr %37, align 8
  %39 = getelementptr inbounds %"struct.metaspace::InUseChunkStats", ptr %5, i32 0, i32 5
  %40 = load i64, ptr %39, align 8
  %41 = add i64 %40, %38
  store i64 %41, ptr %39, align 8
  ret void
}

; Function Attrs: mustprogress nounwind uwtable
define hidden void @_ZN9metaspace10ArenaStats3addERKS0_(ptr noundef nonnull align 8 dereferenceable(736) %0, ptr noundef nonnull align 8 dereferenceable(736) %1) #1 align 2 {
  %3 = alloca ptr, align 8
  %4 = alloca ptr, align 8
  %5 = alloca i8, align 1
  store ptr %0, ptr %3, align 8
  store ptr %1, ptr %4, align 8
  %6 = load ptr, ptr %3, align 8
  store i8 0, ptr %5, align 1
  br label %7

7:                                                ; preds = %21, %2
  %8 = load i8, ptr %5, align 1
  %9 = sext i8 %8 to i32
  %10 = icmp sle i32 %9, 14
  br i1 %10, label %11, label %24

11:                                               ; preds = %7
  %12 = getelementptr inbounds %"struct.metaspace::ArenaStats", ptr %6, i32 0, i32 0
  %13 = load i8, ptr %5, align 1
  %14 = sext i8 %13 to i64
  %15 = getelementptr inbounds [15 x %"struct.metaspace::InUseChunkStats"], ptr %12, i64 0, i64 %14
  %16 = load ptr, ptr %4, align 8
  %17 = getelementptr inbounds %"struct.metaspace::ArenaStats", ptr %16, i32 0, i32 0
  %18 = load i8, ptr %5, align 1
  %19 = sext i8 %18 to i64
  %20 = getelementptr inbounds [15 x %"struct.metaspace::InUseChunkStats"], ptr %17, i64 0, i64 %19
  call void @_ZN9metaspace15InUseChunkStats3addERKS0_(ptr noundef nonnull align 8 dereferenceable(48) %15, ptr noundef nonnull align 8 dereferenceable(48) %20)
  br label %21

21:                                               ; preds = %11
  %22 = load i8, ptr %5, align 1
  %23 = add i8 %22, 1
  store i8 %23, ptr %5, align 1
  br label %7, !llvm.loop !11

24:                                               ; preds = %7
  %25 = load ptr, ptr %4, align 8
  %26 = getelementptr inbounds %"struct.metaspace::ArenaStats", ptr %25, i32 0, i32 1
  %27 = load i64, ptr %26, align 8
  %28 = getelementptr inbounds %"struct.metaspace::ArenaStats", ptr %6, i32 0, i32 1
  %29 = load i64, ptr %28, align 8
  %30 = add i64 %29, %27
  store i64 %30, ptr %28, align 8
  %31 = load ptr, ptr %4, align 8
  %32 = getelementptr inbounds %"struct.metaspace::ArenaStats", ptr %31, i32 0, i32 2
  %33 = load i64, ptr %32, align 8
  %34 = getelementptr inbounds %"struct.metaspace::ArenaStats", ptr %6, i32 0, i32 2
  %35 = load i64, ptr %34, align 8
  %36 = add i64 %35, %33
  store i64 %36, ptr %34, align 8
  ret void
}