; Function Attrs: mustprogress nofree norecurse nosync nounwind memory(argmem: readwrite) uwtable
define hidden void @_ZN9metaspace10ArenaStats3addERKS0_(ptr nocapture noundef nonnull align 8 dereferenceable(736) %0, ptr nocapture noundef nonnull readonly align 8 dereferenceable(736) %1) local_unnamed_addr #0 align 2 {
  br label %3

3:                                                ; preds = %2, %3
  %indvars.iv = phi i64 [ 0, %2 ], [ %indvars.iv.next, %3 ]
  %4 = getelementptr inbounds [15 x %"struct.metaspace::InUseChunkStats"], ptr %0, i64 0, i64 %indvars.iv
  %5 = getelementptr inbounds [15 x %"struct.metaspace::InUseChunkStats"], ptr %1, i64 0, i64 %indvars.iv
  %6 = load i32, ptr %5, align 8
  %7 = load i32, ptr %4, align 8
  %8 = add nsw i32 %7, %6
  store i32 %8, ptr %4, align 8
  %9 = getelementptr inbounds i8, ptr %5, i64 8
  %10 = load i64, ptr %9, align 8
  %11 = getelementptr inbounds i8, ptr %4, i64 8
  %12 = load i64, ptr %11, align 8
  %13 = add i64 %12, %10
  store i64 %13, ptr %11, align 8
  %14 = getelementptr inbounds i8, ptr %5, i64 16
  %15 = load i64, ptr %14, align 8
  %16 = getelementptr inbounds i8, ptr %4, i64 16
  %17 = load i64, ptr %16, align 8
  %18 = add i64 %17, %15
  store i64 %18, ptr %16, align 8
  %19 = getelementptr inbounds i8, ptr %5, i64 24
  %20 = load i64, ptr %19, align 8
  %21 = getelementptr inbounds i8, ptr %4, i64 24
  %22 = load i64, ptr %21, align 8
  %23 = add i64 %22, %20
  store i64 %23, ptr %21, align 8
  %24 = getelementptr inbounds i8, ptr %5, i64 32
  %25 = load i64, ptr %24, align 8
  %26 = getelementptr inbounds i8, ptr %4, i64 32
  %27 = load i64, ptr %26, align 8
  %28 = add i64 %27, %25
  store i64 %28, ptr %26, align 8
  %29 = getelementptr inbounds i8, ptr %5, i64 40
  %30 = load i64, ptr %29, align 8
  %31 = getelementptr inbounds i8, ptr %4, i64 40
  %32 = load i64, ptr %31, align 8
  %33 = add i64 %32, %30
  store i64 %33, ptr %31, align 8
  %indvars.iv.next = add nuw nsw i64 %indvars.iv, 1
  %exitcond.not = icmp eq i64 %indvars.iv.next, 15
  br i1 %exitcond.not, label %34, label %3, !llvm.loop !11

34:                                               ; preds = %3
  %35 = getelementptr inbounds i8, ptr %1, i64 720
  %36 = load i64, ptr %35, align 8
  %37 = getelementptr inbounds i8, ptr %0, i64 720
  %38 = load i64, ptr %37, align 8
  %39 = add i64 %38, %36
  store i64 %39, ptr %37, align 8
  %40 = getelementptr inbounds i8, ptr %1, i64 728
  %41 = load i64, ptr %40, align 8
  %42 = getelementptr inbounds i8, ptr %0, i64 728
  %43 = load i64, ptr %42, align 8
  %44 = add i64 %43, %41
  store i64 %44, ptr %42, align 8
  ret void
}